; ModuleID = '7/651.c'
source_filename = "7/651.c"
target datalayout = "e-m:e-p270:32:32-p271:32:32-p272:64:64-i64:64-f80:128-n8:16:32:64-S128"
target triple = "x86_64-pc-linux-gnu"

@.str = private unnamed_addr constant [4 x i8] c"%s\0A\00", align 1

; Function Attrs: noinline nounwind uwtable
define dso_local i32 @main() #0 {
  %1 = alloca i32, align 4
  %2 = alloca [256 x i8], align 16
  %3 = alloca [256 x i8], align 16
  %4 = alloca [256 x i8], align 16
  %5 = alloca [1000 x i8], align 16
  %6 = alloca i32, align 4
  %7 = alloca i32, align 4
  %8 = alloca i32, align 4
  %9 = alloca i32, align 4
  %10 = alloca i32, align 4
  %11 = alloca i32, align 4
  store i32 0, i32* %1, align 4
  %12 = bitcast [1000 x i8]* %5 to i8*
  call void @llvm.memset.p0i8.i64(i8* align 16 %12, i8 0, i64 1000, i1 false)
  %13 = getelementptr inbounds [256 x i8], [256 x i8]* %2, i64 0, i64 0
  %14 = call i32 (i8*, ...) bitcast (i32 (...)* @gets to i32 (i8*, ...)*)(i8* %13)
  %15 = getelementptr inbounds [256 x i8], [256 x i8]* %3, i64 0, i64 0
  %16 = call i32 (i8*, ...) bitcast (i32 (...)* @gets to i32 (i8*, ...)*)(i8* %15)
  %17 = getelementptr inbounds [256 x i8], [256 x i8]* %4, i64 0, i64 0
  %18 = call i32 (i8*, ...) bitcast (i32 (...)* @gets to i32 (i8*, ...)*)(i8* %17)
  %19 = getelementptr inbounds [256 x i8], [256 x i8]* %2, i64 0, i64 0
  %20 = call i64 @strlen(i8* %19) #4
  %21 = trunc i64 %20 to i32
  store i32 %21, i32* %6, align 4
  %22 = getelementptr inbounds [256 x i8], [256 x i8]* %3, i64 0, i64 0
  %23 = call i64 @strlen(i8* %22) #4
  %24 = trunc i64 %23 to i32
  store i32 %24, i32* %7, align 4
  %25 = getelementptr inbounds [256 x i8], [256 x i8]* %4, i64 0, i64 0
  %26 = call i64 @strlen(i8* %25) #4
  %27 = trunc i64 %26 to i32
  store i32 %27, i32* %8, align 4
  store i32 0, i32* %10, align 4
  store i32 0, i32* %11, align 4
  store i32 0, i32* %9, align 4
  br label %28

28:                                               ; preds = %69, %0
  %29 = load i32, i32* %9, align 4
  %30 = load i32, i32* %6, align 4
  %31 = icmp slt i32 %29, %30
  br i1 %31, label %32, label %72

32:                                               ; preds = %28
  %33 = load i32, i32* %9, align 4
  %34 = sext i32 %33 to i64
  %35 = getelementptr inbounds [256 x i8], [256 x i8]* %2, i64 0, i64 %34
  %36 = load i8, i8* %35, align 1
  %37 = sext i8 %36 to i32
  %38 = load i32, i32* %10, align 4
  %39 = sext i32 %38 to i64
  %40 = getelementptr inbounds [256 x i8], [256 x i8]* %3, i64 0, i64 %39
  %41 = load i8, i8* %40, align 1
  %42 = sext i8 %41 to i32
  %43 = icmp eq i32 %37, %42
  br i1 %43, label %44, label %59

44:                                               ; preds = %32
  %45 = load i32, i32* %11, align 4
  %46 = icmp eq i32 %45, 0
  br i1 %46, label %47, label %59

47:                                               ; preds = %44
  %48 = load i32, i32* %10, align 4
  %49 = load i32, i32* %7, align 4
  %50 = sub nsw i32 %49, 1
  %51 = icmp eq i32 %48, %50
  br i1 %51, label %52, label %55

52:                                               ; preds = %47
  %53 = getelementptr inbounds [1000 x i8], [1000 x i8]* %5, i64 0, i64 0
  %54 = getelementptr inbounds [256 x i8], [256 x i8]* %4, i64 0, i64 0
  call void @adds(i8* %53, i8* %54)
  store i32 0, i32* %10, align 4
  store i32 1, i32* %11, align 4
  br label %58

55:                                               ; preds = %47
  %56 = load i32, i32* %10, align 4
  %57 = add nsw i32 %56, 1
  store i32 %57, i32* %10, align 4
  br label %58

58:                                               ; preds = %55, %52
  br label %68

59:                                               ; preds = %44, %32
  %60 = load i32, i32* %10, align 4
  %61 = load i32, i32* %9, align 4
  %62 = sub nsw i32 %61, %60
  store i32 %62, i32* %9, align 4
  store i32 0, i32* %10, align 4
  %63 = getelementptr inbounds [1000 x i8], [1000 x i8]* %5, i64 0, i64 0
  %64 = load i32, i32* %9, align 4
  %65 = sext i32 %64 to i64
  %66 = getelementptr inbounds [256 x i8], [256 x i8]* %2, i64 0, i64 %65
  %67 = load i8, i8* %66, align 1
  call void @addc(i8* %63, i8 signext %67)
  br label %68

68:                                               ; preds = %59, %58
  br label %69

69:                                               ; preds = %68
  %70 = load i32, i32* %9, align 4
  %71 = add nsw i32 %70, 1
  store i32 %71, i32* %9, align 4
  br label %28

72:                                               ; preds = %28
  %73 = getelementptr inbounds [1000 x i8], [1000 x i8]* %5, i64 0, i64 0
  %74 = call i32 (i8*, ...) @printf(i8* getelementptr inbounds ([4 x i8], [4 x i8]* @.str, i64 0, i64 0), i8* %73)
  ret i32 0
}

; Function Attrs: argmemonly nounwind willreturn
declare void @llvm.memset.p0i8.i64(i8* nocapture writeonly, i8, i64, i1 immarg) #1

declare dso_local i32 @gets(...) #2

; Function Attrs: nounwind readonly
declare dso_local i64 @strlen(i8*) #3

; Function Attrs: noinline nounwind uwtable
define dso_local void @adds(i8* %0, i8* %1) #0 {
  %3 = alloca i8*, align 8
  %4 = alloca i8*, align 8
  %5 = alloca i32, align 4
  %6 = alloca i32, align 4
  %7 = alloca i32, align 4
  store i8* %0, i8** %3, align 8
  store i8* %1, i8** %4, align 8
  %8 = load i8*, i8** %3, align 8
  %9 = call i64 @strlen(i8* %8) #4
  %10 = trunc i64 %9 to i32
  store i32 %10, i32* %5, align 4
  %11 = load i8*, i8** %4, align 8
  %12 = call i64 @strlen(i8* %11) #4
  %13 = trunc i64 %12 to i32
  store i32 %13, i32* %6, align 4
  %14 = load i32, i32* %5, align 4
  store i32 %14, i32* %7, align 4
  br label %15

15:                                               ; preds = %36, %2
  %16 = load i32, i32* %7, align 4
  %17 = load i32, i32* %5, align 4
  %18 = load i32, i32* %6, align 4
  %19 = add nsw i32 %17, %18
  %20 = sub nsw i32 %19, 1
  %21 = icmp sle i32 %16, %20
  br i1 %21, label %22, label %39

22:                                               ; preds = %15
  %23 = load i8*, i8** %4, align 8
  %24 = load i32, i32* %7, align 4
  %25 = sext i32 %24 to i64
  %26 = getelementptr inbounds i8, i8* %23, i64 %25
  %27 = load i32, i32* %5, align 4
  %28 = sext i32 %27 to i64
  %29 = sub i64 0, %28
  %30 = getelementptr inbounds i8, i8* %26, i64 %29
  %31 = load i8, i8* %30, align 1
  %32 = load i8*, i8** %3, align 8
  %33 = load i32, i32* %7, align 4
  %34 = sext i32 %33 to i64
  %35 = getelementptr inbounds i8, i8* %32, i64 %34
  store i8 %31, i8* %35, align 1
  br label %36

36:                                               ; preds = %22
  %37 = load i32, i32* %7, align 4
  %38 = add nsw i32 %37, 1
  store i32 %38, i32* %7, align 4
  br label %15

39:                                               ; preds = %15
  %40 = load i8*, i8** %3, align 8
  %41 = load i32, i32* %5, align 4
  %42 = sext i32 %41 to i64
  %43 = getelementptr inbounds i8, i8* %40, i64 %42
  %44 = load i32, i32* %6, align 4
  %45 = sext i32 %44 to i64
  %46 = getelementptr inbounds i8, i8* %43, i64 %45
  store i8 0, i8* %46, align 1
  ret void
}

; Function Attrs: noinline nounwind uwtable
define dso_local void @addc(i8* %0, i8 signext %1) #0 {
  %3 = alloca i8*, align 8
  %4 = alloca i8, align 1
  %5 = alloca i32, align 4
  store i8* %0, i8** %3, align 8
  store i8 %1, i8* %4, align 1
  %6 = load i8*, i8** %3, align 8
  %7 = call i64 @strlen(i8* %6) #4
  %8 = trunc i64 %7 to i32
  store i32 %8, i32* %5, align 4
  %9 = load i8, i8* %4, align 1
  %10 = load i8*, i8** %3, align 8
  %11 = load i32, i32* %5, align 4
  %12 = sext i32 %11 to i64
  %13 = getelementptr inbounds i8, i8* %10, i64 %12
  store i8 %9, i8* %13, align 1
  %14 = load i8*, i8** %3, align 8
  %15 = load i32, i32* %5, align 4
  %16 = sext i32 %15 to i64
  %17 = getelementptr inbounds i8, i8* %14, i64 %16
  %18 = getelementptr inbounds i8, i8* %17, i64 1
  store i8 0, i8* %18, align 1
  ret void
}

declare dso_local i32 @printf(i8*, ...) #2


!llvm.module.flags = !{!0}
!llvm.ident = !{!1}

!0 = !{i32 1, !"wchar_size", i32 4}
!1 = !{!"clang version 10.0.0-4ubuntu1 "}
